target datalayout = "e-m:e-p270:32:32-p271:32:32-p272:64:64-i64:64-i128:128-f80:128-n8:16:32:64-S128"
target triple = "x86_64-pc-linux-gnu"

%struct.ident_t = type { i32, i32, i32, i32, ptr }
%"struct.faiss::MultiIndexQuantizer" = type { %"struct.faiss::Index.base", %"struct.faiss::ProductQuantizer" }
%"struct.faiss::Index.base" = type <{ ptr, i32, [4 x i8], i64, i8, i8, [2 x i8], i32, float }>
%"struct.faiss::ProductQuantizer" = type { %"struct.faiss::Quantizer", i64, i64, i64, i64, i8, i32, %"struct.faiss::ClusteringParameters", ptr, %"class.std::vector.0", %"class.std::vector.0", %"class.std::vector.0", %"class.std::vector.0" }
%"struct.faiss::Quantizer" = type { ptr, i64, i64 }
%"struct.faiss::ClusteringParameters" = type <{ i32, i32, i8, i8, i8, i8, i8, [3 x i8], i32, i32, i32, [4 x i8], i64, i8, i8, [6 x i8] }>
%"class.std::vector.0" = type { %"struct.std::_Vector_base.1" }
%"struct.std::_Vector_base.1" = type { %"struct.std::_Vector_base<float, std::allocator<float>>::_Vector_impl" }
%"struct.std::_Vector_base<float, std::allocator<float>>::_Vector_impl" = type { %"struct.std::_Vector_base<float, std::allocator<float>>::_Vector_impl_data" }
%"struct.std::_Vector_base<float, std::allocator<float>>::_Vector_impl_data" = type { ptr, ptr, ptr }
%"class.std::unique_ptr.24" = type { %"struct.std::__uniq_ptr_data.25" }
%"struct.std::__uniq_ptr_data.25" = type { %"class.std::__uniq_ptr_impl.26" }
%"class.std::__uniq_ptr_impl.26" = type { %"class.std::tuple.27" }
%"class.std::tuple.27" = type { %"struct.std::_Tuple_impl.28" }
%"struct.std::_Tuple_impl.28" = type { %"struct.std::_Head_base.31" }
%"struct.std::_Head_base.31" = type { ptr }

@1 = private unnamed_addr constant %struct.ident_t { i32 0, i32 514, i32 0, i32 22, ptr @0 }, align 8

; Function Attrs: mustprogress nounwind uwtable
define linkonce_odr noundef nonnull align 8 dereferenceable(8) ptr @_ZNSt10_Head_baseILm0EPfLb0EE7_M_headERKS1_(ptr noundef nonnull align 8 dereferenceable(8) %0) #3 comdat align 2 {
  %2 = alloca ptr, align 8
  store ptr %0, ptr %2, align 8, !tbaa !310
  %3 = load ptr, ptr %2, align 8, !tbaa !310
  %4 = getelementptr inbounds nuw %"struct.std::_Head_base.31", ptr %3, i32 0, i32 0
  ret ptr %4
}

; Function Attrs: mustprogress nounwind uwtable
define linkonce_odr noundef nonnull align 8 dereferenceable(8) ptr @_ZNSt11_Tuple_implILm0EJPfSt14default_deleteIA_fEEE7_M_headERKS4_(ptr noundef nonnull align 8 dereferenceable(8) %0) #3 comdat align 2 {
  %2 = alloca ptr, align 8
  store ptr %0, ptr %2, align 8, !tbaa !306
  %3 = load ptr, ptr %2, align 8, !tbaa !306
  %4 = call noundef nonnull align 8 dereferenceable(8) ptr @_ZNSt10_Head_baseILm0EPfLb0EE7_M_headERKS1_(ptr noundef nonnull align 8 dereferenceable(8) %3) #20
  ret ptr %4
}

; Function Attrs: mustprogress nounwind uwtable
define linkonce_odr noundef nonnull align 8 dereferenceable(8) ptr @_ZSt12__get_helperILm0EPfJSt14default_deleteIA_fEEERKT0_RKSt11_Tuple_implIXT_EJS4_DpT1_EE(ptr noundef nonnull align 8 dereferenceable(8) %0) #3 comdat {
  %2 = alloca ptr, align 8
  store ptr %0, ptr %2, align 8, !tbaa !306
  %3 = load ptr, ptr %2, align 8, !tbaa !306
  %4 = call noundef nonnull align 8 dereferenceable(8) ptr @_ZNSt11_Tuple_implILm0EJPfSt14default_deleteIA_fEEE7_M_headERKS4_(ptr noundef nonnull align 8 dereferenceable(8) %3) #20
  ret ptr %4
}

; Function Attrs: mustprogress nounwind uwtable
define linkonce_odr noundef nonnull align 8 dereferenceable(8) ptr @_ZSt3getILm0EJPfSt14default_deleteIA_fEEERKNSt13tuple_elementIXT_ESt5tupleIJDpT0_EEE4typeERKS8_(ptr noundef nonnull align 8 dereferenceable(8) %0) #3 comdat {
  %2 = alloca ptr, align 8
  store ptr %0, ptr %2, align 8, !tbaa !304
  %3 = load ptr, ptr %2, align 8, !tbaa !304
  %4 = call noundef nonnull align 8 dereferenceable(8) ptr @_ZSt12__get_helperILm0EPfJSt14default_deleteIA_fEEERKT0_RKSt11_Tuple_implIXT_EJS4_DpT1_EE(ptr noundef nonnull align 8 dereferenceable(8) %3) #20
  ret ptr %4
}

; Function Attrs: mustprogress nounwind uwtable
define linkonce_odr noundef ptr @_ZNKSt15__uniq_ptr_implIfSt14default_deleteIA_fEE6_M_ptrEv(ptr noundef nonnull align 8 dereferenceable(8) %0) #3 comdat align 2 {
  %2 = alloca ptr, align 8
  store ptr %0, ptr %2, align 8, !tbaa !302
  %3 = load ptr, ptr %2, align 8
  %4 = getelementptr inbounds nuw %"class.std::__uniq_ptr_impl.26", ptr %3, i32 0, i32 0
  %5 = call noundef nonnull align 8 dereferenceable(8) ptr @_ZSt3getILm0EJPfSt14default_deleteIA_fEEERKNSt13tuple_elementIXT_ESt5tupleIJDpT0_EEE4typeERKS8_(ptr noundef nonnull align 8 dereferenceable(8) %4) #20
  %6 = load ptr, ptr %5, align 8, !tbaa !13
  ret ptr %6
}

; Function Attrs: mustprogress nounwind uwtable
define linkonce_odr noundef ptr @_ZNKSt10unique_ptrIA_fSt14default_deleteIS0_EE3getEv(ptr noundef nonnull align 8 dereferenceable(8) %0) #3 comdat align 2 {
  %2 = alloca ptr, align 8
  store ptr %0, ptr %2, align 8, !tbaa !282
  %3 = load ptr, ptr %2, align 8
  %4 = getelementptr inbounds nuw %"class.std::unique_ptr.24", ptr %3, i32 0, i32 0
  %5 = call noundef ptr @_ZNKSt15__uniq_ptr_implIfSt14default_deleteIA_fEE6_M_ptrEv(ptr noundef nonnull align 8 dereferenceable(8) %4) #20
  ret ptr %5
}

; Function Attrs: alwaysinline norecurse nounwind uwtable
define internal void @_ZNK5faiss19MultiIndexQuantizer6searchElPKflPfPlPKNS_16SearchParametersE.omp_outlined(ptr noalias noundef %0, ptr noalias noundef %1, ptr noundef nonnull align 8 dereferenceable(8) %2, ptr noundef nonnull align 8 dereferenceable(8) %3, ptr noundef %4, ptr noundef nonnull align 8 dereferenceable(8) %5, ptr noundef nonnull align 8 dereferenceable(8) %6) #19 {
  %8 = alloca ptr, align 8
  %9 = alloca ptr, align 8
  %10 = alloca ptr, align 8
  %11 = alloca ptr, align 8
  %12 = alloca ptr, align 8
  %13 = alloca ptr, align 8
  %14 = alloca ptr, align 8
  %15 = alloca i32, align 4
  %16 = alloca i64, align 8
  %17 = alloca i32, align 4
  %18 = alloca i32, align 4
  %19 = alloca i32, align 4
  %20 = alloca i32, align 4
  %21 = alloca i32, align 4
  %22 = alloca i32, align 4
  %23 = alloca i32, align 4
  %24 = alloca ptr, align 8
  %25 = alloca float, align 4
  %26 = alloca i64, align 8
  %27 = alloca i32, align 4
  %28 = alloca i32, align 4
  %29 = alloca float, align 4
  %30 = alloca i64, align 8
  %31 = alloca i64, align 8
  store ptr %0, ptr %8, align 8, !tbaa !239
  store ptr %1, ptr %9, align 8, !tbaa !239
  store ptr %2, ptr %10, align 8, !tbaa !41
  store ptr %3, ptr %11, align 8, !tbaa !282
  store ptr %4, ptr %12, align 8, !tbaa !4
  store ptr %5, ptr %13, align 8, !tbaa !191
  store ptr %6, ptr %14, align 8, !tbaa !286
  %32 = load ptr, ptr %10, align 8, !tbaa !41
  %33 = load ptr, ptr %11, align 8, !tbaa !282
  %34 = load ptr, ptr %12, align 8, !tbaa !4
  %35 = load ptr, ptr %13, align 8, !tbaa !191
  %36 = load ptr, ptr %14, align 8, !tbaa !286
  call void @llvm.lifetime.start.p0(i64 4, ptr %15) #20
  call void @llvm.lifetime.start.p0(i64 8, ptr %16) #20
  %37 = load i64, ptr %32, align 8, !tbaa !11
  store i64 %37, ptr %16, align 8, !tbaa !11
  call void @llvm.lifetime.start.p0(i64 4, ptr %17) #20
  %38 = load i64, ptr %16, align 8, !tbaa !11
  %39 = sub nsw i64 %38, 0
  %40 = sdiv i64 %39, 1
  %41 = trunc i64 %40 to i32
  %42 = sub nsw i32 %41, 1
  store i32 %42, ptr %17, align 4, !tbaa !36
  call void @llvm.lifetime.start.p0(i64 4, ptr %18) #20
  store i32 0, ptr %18, align 4, !tbaa !36
  call void @llvm.lifetime.end.p0(i64 4, ptr %18) #20
  %43 = load i64, ptr %16, align 8, !tbaa !11
  %44 = icmp slt i64 0, %43
  br i1 %44, label %45, label %154

45:                                               ; preds = %7
  call void @llvm.lifetime.start.p0(i64 4, ptr %19) #20
  store i32 0, ptr %19, align 4, !tbaa !36
  call void @llvm.lifetime.start.p0(i64 4, ptr %20) #20
  %46 = load i32, ptr %17, align 4, !tbaa !36
  store i32 %46, ptr %20, align 4, !tbaa !36
  call void @llvm.lifetime.start.p0(i64 4, ptr %21) #20
  store i32 1, ptr %21, align 4, !tbaa !36
  call void @llvm.lifetime.start.p0(i64 4, ptr %22) #20
  store i32 0, ptr %22, align 4, !tbaa !36
  call void @llvm.lifetime.start.p0(i64 4, ptr %23) #20
  %47 = load ptr, ptr %8, align 8
  %48 = load i32, ptr %47, align 4, !tbaa !36
  call void @__kmpc_for_static_init_4(ptr @1, i32 %48, i32 34, ptr %22, ptr %19, ptr %20, ptr %21, i32 1, i32 1)
  %49 = load i32, ptr %20, align 4, !tbaa !36
  %50 = load i32, ptr %17, align 4, !tbaa !36
  %51 = icmp sgt i32 %49, %50
  br i1 %51, label %52, label %54

52:                                               ; preds = %45
  %53 = load i32, ptr %17, align 4, !tbaa !36
  br label %56

54:                                               ; preds = %45
  %55 = load i32, ptr %20, align 4, !tbaa !36
  br label %56

56:                                               ; preds = %54, %52
  %57 = phi i32 [ %53, %52 ], [ %55, %54 ]
  store i32 %57, ptr %20, align 4, !tbaa !36
  %58 = load i32, ptr %19, align 4, !tbaa !36
  store i32 %58, ptr %15, align 4, !tbaa !36
  br label %59

59:                                               ; preds = %147, %56
  %60 = load i32, ptr %15, align 4, !tbaa !36
  %61 = load i32, ptr %20, align 4, !tbaa !36
  %62 = icmp sle i32 %60, %61
  br i1 %62, label %64, label %63

63:                                               ; preds = %59
  br label %150

64:                                               ; preds = %59
  %65 = load i32, ptr %15, align 4, !tbaa !36
  %66 = mul nsw i32 %65, 1
  %67 = add nsw i32 0, %66
  store i32 %67, ptr %23, align 4, !tbaa !36
  call void @llvm.lifetime.start.p0(i64 8, ptr %24) #20
  %68 = call noundef ptr @_ZNKSt10unique_ptrIA_fSt14default_deleteIS0_EE3getEv(ptr noundef nonnull align 8 dereferenceable(8) %33) #20
  %69 = load i32, ptr %23, align 4, !tbaa !36
  %70 = sext i32 %69 to i64
  %71 = getelementptr inbounds nuw %"struct.faiss::MultiIndexQuantizer", ptr %34, i32 0, i32 1
  %72 = getelementptr inbounds nuw %"struct.faiss::ProductQuantizer", ptr %71, i32 0, i32 4
  %73 = load i64, ptr %72, align 8, !tbaa !38
  %74 = mul i64 %70, %73
  %75 = getelementptr inbounds nuw %"struct.faiss::MultiIndexQuantizer", ptr %34, i32 0, i32 1
  %76 = getelementptr inbounds nuw %"struct.faiss::ProductQuantizer", ptr %75, i32 0, i32 1
  %77 = load i64, ptr %76, align 8, !tbaa !37
  %78 = mul i64 %74, %77
  %79 = getelementptr inbounds nuw float, ptr %68, i64 %78
  store ptr %79, ptr %24, align 8, !tbaa !13
  call void @llvm.lifetime.start.p0(i64 4, ptr %25) #20
  store float 0.000000e+00, ptr %25, align 4, !tbaa !98
  call void @llvm.lifetime.start.p0(i64 8, ptr %26) #20
  store i64 0, ptr %26, align 8, !tbaa !11
  call void @llvm.lifetime.start.p0(i64 4, ptr %27) #20
  store i32 0, ptr %27, align 4, !tbaa !36
  br label %80

80:                                               ; preds = %132, %64
  %81 = load i32, ptr %27, align 4, !tbaa !36
  %82 = sext i32 %81 to i64
  %83 = getelementptr inbounds nuw %"struct.faiss::MultiIndexQuantizer", ptr %34, i32 0, i32 1
  %84 = getelementptr inbounds nuw %"struct.faiss::ProductQuantizer", ptr %83, i32 0, i32 1
  %85 = load i64, ptr %84, align 8, !tbaa !37
  %86 = icmp ult i64 %82, %85
  br i1 %86, label %88, label %87

87:                                               ; preds = %80
  store i32 6, ptr %28, align 4
  call void @llvm.lifetime.end.p0(i64 4, ptr %27) #20
  br label %135

88:                                               ; preds = %80
  call void @llvm.lifetime.start.p0(i64 4, ptr %29) #20
  store float 0x7FF0000000000000, ptr %29, align 4, !tbaa !98
  call void @llvm.lifetime.start.p0(i64 8, ptr %30) #20
  store i64 -1, ptr %30, align 8, !tbaa !11
  call void @llvm.lifetime.start.p0(i64 8, ptr %31) #20
  store i64 0, ptr %31, align 8, !tbaa !11
  br label %89

89:                                               ; preds = %110, %88
  %90 = load i64, ptr %31, align 8, !tbaa !11
  %91 = getelementptr inbounds nuw %"struct.faiss::MultiIndexQuantizer", ptr %34, i32 0, i32 1
  %92 = getelementptr inbounds nuw %"struct.faiss::ProductQuantizer", ptr %91, i32 0, i32 4
  %93 = load i64, ptr %92, align 8, !tbaa !38
  %94 = icmp ult i64 %90, %93
  br i1 %94, label %96, label %95

95:                                               ; preds = %89
  store i32 9, ptr %28, align 4
  call void @llvm.lifetime.end.p0(i64 8, ptr %31) #20
  br label %113

96:                                               ; preds = %89
  %97 = load ptr, ptr %24, align 8, !tbaa !13
  %98 = load i64, ptr %31, align 8, !tbaa !11
  %99 = getelementptr inbounds float, ptr %97, i64 %98
  %100 = load float, ptr %99, align 4, !tbaa !98
  %101 = load float, ptr %29, align 4, !tbaa !98
  %102 = fcmp olt float %100, %101
  br i1 %102, label %103, label %109

103:                                              ; preds = %96
  %104 = load ptr, ptr %24, align 8, !tbaa !13
  %105 = load i64, ptr %31, align 8, !tbaa !11
  %106 = getelementptr inbounds float, ptr %104, i64 %105
  %107 = load float, ptr %106, align 4, !tbaa !98
  store float %107, ptr %29, align 4, !tbaa !98
  %108 = load i64, ptr %31, align 8, !tbaa !11
  store i64 %108, ptr %30, align 8, !tbaa !11
  br label %109

109:                                              ; preds = %103, %96
  br label %110

110:                                              ; preds = %109
  %111 = load i64, ptr %31, align 8, !tbaa !11
  %112 = add nsw i64 %111, 1
  store i64 %112, ptr %31, align 8, !tbaa !11
  br label %89, !llvm.loop !426

113:                                              ; preds = %95
  %114 = load float, ptr %29, align 4, !tbaa !98
  %115 = load float, ptr %25, align 4, !tbaa !98
  %116 = fadd float %115, %114
  store float %116, ptr %25, align 4, !tbaa !98
  %117 = load i64, ptr %30, align 8, !tbaa !11
  %118 = load i32, ptr %27, align 4, !tbaa !36
  %119 = sext i32 %118 to i64
  %120 = getelementptr inbounds nuw %"struct.faiss::MultiIndexQuantizer", ptr %34, i32 0, i32 1
  %121 = getelementptr inbounds nuw %"struct.faiss::ProductQuantizer", ptr %120, i32 0, i32 2
  %122 = load i64, ptr %121, align 8, !tbaa !47
  %123 = mul i64 %119, %122
  %124 = shl i64 %117, %123
  %125 = load i64, ptr %26, align 8, !tbaa !11
  %126 = or i64 %125, %124
  store i64 %126, ptr %26, align 8, !tbaa !11
  %127 = getelementptr inbounds nuw %"struct.faiss::MultiIndexQuantizer", ptr %34, i32 0, i32 1
  %128 = getelementptr inbounds nuw %"struct.faiss::ProductQuantizer", ptr %127, i32 0, i32 4
  %129 = load i64, ptr %128, align 8, !tbaa !38
  %130 = load ptr, ptr %24, align 8, !tbaa !13
  %131 = getelementptr inbounds nuw float, ptr %130, i64 %129
  store ptr %131, ptr %24, align 8, !tbaa !13
  call void @llvm.lifetime.end.p0(i64 8, ptr %30) #20
  call void @llvm.lifetime.end.p0(i64 4, ptr %29) #20
  br label %132

132:                                              ; preds = %113
  %133 = load i32, ptr %27, align 4, !tbaa !36
  %134 = add nsw i32 %133, 1
  store i32 %134, ptr %27, align 4, !tbaa !36
  br label %80, !llvm.loop !427

135:                                              ; preds = %87
  %136 = load float, ptr %25, align 4, !tbaa !98
  %137 = load ptr, ptr %35, align 8, !tbaa !13
  %138 = load i32, ptr %23, align 4, !tbaa !36
  %139 = sext i32 %138 to i64
  %140 = getelementptr inbounds float, ptr %137, i64 %139
  store float %136, ptr %140, align 4, !tbaa !98
  %141 = load i64, ptr %26, align 8, !tbaa !11
  %142 = load ptr, ptr %36, align 8, !tbaa !41
  %143 = load i32, ptr %23, align 4, !tbaa !36
  %144 = sext i32 %143 to i64
  %145 = getelementptr inbounds i64, ptr %142, i64 %144
  store i64 %141, ptr %145, align 8, !tbaa !11
  call void @llvm.lifetime.end.p0(i64 8, ptr %26) #20
  call void @llvm.lifetime.end.p0(i64 4, ptr %25) #20
  call void @llvm.lifetime.end.p0(i64 8, ptr %24) #20
  br label %146

146:                                              ; preds = %135
  br label %147

147:                                              ; preds = %146
  %148 = load i32, ptr %15, align 4, !tbaa !36
  %149 = add nsw i32 %148, 1
  store i32 %149, ptr %15, align 4, !tbaa !36
  br label %59

150:                                              ; preds = %63
  br label %151

151:                                              ; preds = %150
  %152 = load ptr, ptr %8, align 8
  %153 = load i32, ptr %152, align 4, !tbaa !36
  call void @__kmpc_for_static_fini(ptr @1, i32 %153)
  call void @llvm.lifetime.end.p0(i64 4, ptr %23) #20
  call void @llvm.lifetime.end.p0(i64 4, ptr %22) #20
  call void @llvm.lifetime.end.p0(i64 4, ptr %21) #20
  call void @llvm.lifetime.end.p0(i64 4, ptr %20) #20
  call void @llvm.lifetime.end.p0(i64 4, ptr %19) #20
  br label %154

154:                                              ; preds = %151, %7
  call void @llvm.lifetime.end.p0(i64 4, ptr %17) #20
  call void @llvm.lifetime.end.p0(i64 8, ptr %16) #20
  call void @llvm.lifetime.end.p0(i64 4, ptr %15) #20
  ret void
}