; Function Attrs: alwaysinline norecurse nounwind uwtable
define internal void @_ZNK5faiss19MultiIndexQuantizer6searchElPKflPfPlPKNS_16SearchParametersE.omp_outlined(ptr noalias noundef readonly captures(none) %0, ptr noalias readnone captures(none) %1, ptr noundef nonnull readonly align 8 captures(none) dereferenceable(8) %2, ptr noundef nonnull readonly align 8 captures(none) dereferenceable(8) %3, ptr noundef readonly captures(none) %4, ptr noundef nonnull readonly align 8 captures(none) dereferenceable(8) %5, ptr noundef nonnull readonly align 8 captures(none) dereferenceable(8) %6) #19 {
  %8 = alloca i32, align 4
  %9 = alloca i32, align 4
  %10 = alloca i32, align 4
  %11 = alloca i32, align 4
  %12 = load i64, ptr %2, align 8, !tbaa !41
  %13 = icmp sgt i64 %12, 0
  br i1 %13, label %14, label %52

14:                                               ; preds = %7
  %15 = trunc i64 %12 to i32
  %16 = add nsw i32 %15, -1
  call void @llvm.lifetime.start.p0(i64 4, ptr nonnull %8) #20
  store i32 0, ptr %8, align 4, !tbaa !49
  call void @llvm.lifetime.start.p0(i64 4, ptr nonnull %9) #20
  store i32 %16, ptr %9, align 4, !tbaa !49
  call void @llvm.lifetime.start.p0(i64 4, ptr nonnull %10) #20
  store i32 1, ptr %10, align 4, !tbaa !49
  call void @llvm.lifetime.start.p0(i64 4, ptr nonnull %11) #20
  store i32 0, ptr %11, align 4, !tbaa !49
  %17 = load i32, ptr %0, align 4, !tbaa !49
  call void @__kmpc_for_static_init_4(ptr nonnull @1, i32 %17, i32 34, ptr nonnull %11, ptr nonnull %8, ptr nonnull %9, ptr nonnull %10, i32 1, i32 1)
  %18 = load i32, ptr %9, align 4, !tbaa !49
  %19 = call i32 @llvm.smin.i32(i32 %18, i32 %16)
  store i32 %19, ptr %9, align 4, !tbaa !49
  %20 = load i32, ptr %8, align 4, !tbaa !49
  %.not58 = icmp sgt i32 %20, %19
  br i1 %.not58, label %._crit_edge, label %.lr.ph

.lr.ph:                                           ; preds = %14
  %21 = load ptr, ptr %3, align 8, !tbaa !46
  %22 = getelementptr inbounds nuw i8, ptr %4, i64 88
  %23 = getelementptr inbounds nuw i8, ptr %4, i64 64
  %24 = getelementptr inbounds nuw i8, ptr %4, i64 72
  %25 = load ptr, ptr %5, align 8, !tbaa !46
  %26 = load ptr, ptr %6, align 8, !tbaa !47
  %27 = sext i32 %20 to i64
  %28 = add nsw i32 %19, 1
  br label %29

29:                                               ; preds = %.lr.ph, %._crit_edge54
  %indvars.iv72 = phi i64 [ %27, %.lr.ph ], [ %indvars.iv.next73, %._crit_edge54 ]
  %30 = load i64, ptr %22, align 8, !tbaa !35
  %31 = load i64, ptr %23, align 8, !tbaa !34
  %.not60 = icmp eq i64 %31, 0
  br i1 %.not60, label %._crit_edge54, label %.preheader.lr.ph

.preheader.lr.ph:                                 ; preds = %29
  %.not61 = icmp eq i64 %30, 0
  %32 = load i64, ptr %24, align 8, !tbaa !53
  br i1 %.not61, label %.preheader, label %.preheader.us.preheader

.preheader.us.preheader:                          ; preds = %.preheader.lr.ph
  %33 = mul i64 %30, %indvars.iv72
  %34 = mul i64 %33, %31
  %35 = getelementptr inbounds nuw float, ptr %21, i64 %34
  br label %.preheader.us

.preheader.us:                                    ; preds = %.preheader.us.preheader, %._crit_edge.us
  %indvars.iv = phi i64 [ 0, %.preheader.us.preheader ], [ %indvars.iv.next, %._crit_edge.us ]
  %.03952.us = phi i64 [ 0, %.preheader.us.preheader ], [ %44, %._crit_edge.us ]
  %.04051.us = phi float [ 0.000000e+00, %.preheader.us.preheader ], [ %41, %._crit_edge.us ]
  %.04150.us = phi ptr [ %35, %.preheader.us.preheader ], [ %45, %._crit_edge.us ]
  br label %36

36:                                               ; preds = %.preheader.us, %36
  %.048.us = phi i64 [ 0, %.preheader.us ], [ %40, %36 ]
  %.03547.us = phi i64 [ -1, %.preheader.us ], [ %.1.us, %36 ]
  %.03646.us = phi float [ 0x7FF0000000000000, %.preheader.us ], [ %.137.us, %36 ]
  %37 = getelementptr inbounds nuw float, ptr %.04150.us, i64 %.048.us
  %38 = load float, ptr %37, align 4, !tbaa !94
  %39 = fcmp olt float %38, %.03646.us
  %.137.us = select i1 %39, float %38, float %.03646.us
  %.1.us = select i1 %39, i64 %.048.us, i64 %.03547.us
  %40 = add nuw nsw i64 %.048.us, 1
  %exitcond.not = icmp eq i64 %40, %30
  br i1 %exitcond.not, label %._crit_edge.us, label %36, !llvm.loop !197

._crit_edge.us:                                   ; preds = %36
  %41 = fadd float %.04051.us, %.137.us
  %42 = mul i64 %32, %indvars.iv
  %43 = shl i64 %.1.us, %42
  %44 = or i64 %43, %.03952.us
  %45 = getelementptr inbounds nuw float, ptr %.04150.us, i64 %30
  %indvars.iv.next = add nuw nsw i64 %indvars.iv, 1
  %exitcond67.not = icmp eq i64 %indvars.iv.next, %31
  br i1 %exitcond67.not, label %._crit_edge54, label %.preheader.us, !llvm.loop !198

.preheader:                                       ; preds = %.preheader.lr.ph, %.preheader
  %indvars.iv68 = phi i64 [ %indvars.iv.next69, %.preheader ], [ 0, %.preheader.lr.ph ]
  %.03952 = phi i64 [ %49, %.preheader ], [ 0, %.preheader.lr.ph ]
  %.04051 = phi float [ %46, %.preheader ], [ 0.000000e+00, %.preheader.lr.ph ]
  %46 = fadd float %.04051, 0x7FF0000000000000
  %47 = mul i64 %32, %indvars.iv68
  %48 = shl nsw i64 -1, %47
  %49 = or i64 %48, %.03952
  %indvars.iv.next69 = add nuw nsw i64 %indvars.iv68, 1
  %exitcond71.not = icmp eq i64 %indvars.iv.next69, %31
  br i1 %exitcond71.not, label %._crit_edge54, label %.preheader, !llvm.loop !198

._crit_edge54:                                    ; preds = %._crit_edge.us, %.preheader, %29
  %.040.lcssa = phi float [ 0.000000e+00, %29 ], [ %46, %.preheader ], [ %41, %._crit_edge.us ]
  %.039.lcssa = phi i64 [ 0, %29 ], [ %49, %.preheader ], [ %44, %._crit_edge.us ]
  %50 = getelementptr inbounds float, ptr %25, i64 %indvars.iv72
  store float %.040.lcssa, ptr %50, align 4, !tbaa !94
  %51 = getelementptr inbounds i64, ptr %26, i64 %indvars.iv72
  store i64 %.039.lcssa, ptr %51, align 8, !tbaa !41
  %indvars.iv.next73 = add nsw i64 %indvars.iv72, 1
  %lftr.wideiv = trunc i64 %indvars.iv.next73 to i32
  %exitcond75.not = icmp eq i32 %28, %lftr.wideiv
  br i1 %exitcond75.not, label %._crit_edge, label %29

._crit_edge:                                      ; preds = %._crit_edge54, %14
  call void @__kmpc_for_static_fini(ptr nonnull @1, i32 %17)
  call void @llvm.lifetime.end.p0(i64 4, ptr nonnull %11) #20
  call void @llvm.lifetime.end.p0(i64 4, ptr nonnull %10) #20
  call void @llvm.lifetime.end.p0(i64 4, ptr nonnull %9) #20
  call void @llvm.lifetime.end.p0(i64 4, ptr nonnull %8) #20
  br label %52

52:                                               ; preds = %._crit_edge, %7
  ret void
}